; Function Attrs: mustprogress nofree norecurse nosync nounwind willreturn memory(read, inaccessiblemem: none) uwtable
define noundef ptr @_ZNK5draco10PointCloud17GetNamedAttributeENS_17GeometryAttribute4TypeEi(ptr nocapture noundef nonnull readonly align 8 dereferenceable(164) %0, i32 noundef %1, i32 noundef %2) local_unnamed_addr #5 align 2 {
  %4 = icmp eq i32 %1, -1
  %5 = icmp sgt i32 %1, 4
  %or.cond.i.i = or i1 %4, %5
  br i1 %or.cond.i.i, label %_ZNK5draco10PointCloud18NumNamedAttributesENS_17GeometryAttribute4TypeE.exit.i, label %6

6:                                                ; preds = %3
  %7 = getelementptr inbounds i8, ptr %0, i64 40
  %8 = sext i32 %1 to i64
  %9 = getelementptr inbounds [5 x %"class.std::vector.2"], ptr %7, i64 0, i64 %8
  %10 = getelementptr inbounds i8, ptr %9, i64 8
  %11 = load ptr, ptr %10, align 8
  %12 = load ptr, ptr %9, align 8
  %13 = ptrtoint ptr %11 to i64
  %14 = ptrtoint ptr %12 to i64
  %15 = sub i64 %13, %14
  %16 = lshr exact i64 %15, 2
  %17 = trunc i64 %16 to i32
  br label %_ZNK5draco10PointCloud18NumNamedAttributesENS_17GeometryAttribute4TypeE.exit.i

_ZNK5draco10PointCloud18NumNamedAttributesENS_17GeometryAttribute4TypeE.exit.i: ; preds = %6, %3
  %.0.i.i = phi i32 [ %17, %6 ], [ 0, %3 ]
  %.not.i = icmp sgt i32 %.0.i.i, %2
  br i1 %.not.i, label %_ZNK5draco10PointCloud19GetNamedAttributeIdENS_17GeometryAttribute4TypeEi.exit, label %_ZNK5draco10PointCloud19GetNamedAttributeIdENS_17GeometryAttribute4TypeEi.exit.thread

_ZNK5draco10PointCloud19GetNamedAttributeIdENS_17GeometryAttribute4TypeEi.exit: ; preds = %_ZNK5draco10PointCloud18NumNamedAttributesENS_17GeometryAttribute4TypeE.exit.i
  %18 = getelementptr inbounds i8, ptr %0, i64 40
  %19 = sext i32 %1 to i64
  %20 = getelementptr inbounds [5 x %"class.std::vector.2"], ptr %18, i64 0, i64 %19
  %21 = sext i32 %2 to i64
  %22 = load ptr, ptr %20, align 8
  %23 = getelementptr inbounds i32, ptr %22, i64 %21
  %24 = load i32, ptr %23, align 4
  %25 = icmp eq i32 %24, -1
  br i1 %25, label %_ZNK5draco10PointCloud19GetNamedAttributeIdENS_17GeometryAttribute4TypeEi.exit.thread, label %26

26:                                               ; preds = %_ZNK5draco10PointCloud19GetNamedAttributeIdENS_17GeometryAttribute4TypeEi.exit
  %27 = getelementptr inbounds i8, ptr %0, i64 16
  %28 = sext i32 %24 to i64
  %29 = load ptr, ptr %27, align 8
  %30 = getelementptr inbounds %"class.std::unique_ptr.7", ptr %29, i64 %28
  %31 = load ptr, ptr %30, align 8
  br label %_ZNK5draco10PointCloud19GetNamedAttributeIdENS_17GeometryAttribute4TypeEi.exit.thread

_ZNK5draco10PointCloud19GetNamedAttributeIdENS_17GeometryAttribute4TypeEi.exit.thread: ; preds = %_ZNK5draco10PointCloud18NumNamedAttributesENS_17GeometryAttribute4TypeE.exit.i, %_ZNK5draco10PointCloud19GetNamedAttributeIdENS_17GeometryAttribute4TypeEi.exit, %26
  %.0 = phi ptr [ %31, %26 ], [ null, %_ZNK5draco10PointCloud19GetNamedAttributeIdENS_17GeometryAttribute4TypeEi.exit ], [ null, %_ZNK5draco10PointCloud18NumNamedAttributesENS_17GeometryAttribute4TypeE.exit.i ]
  ret ptr %.0
}